target datalayout = "e-m:e-p270:32:32-p271:32:32-p272:64:64-i64:64-i128:128-f80:128-n8:16:32:64-S128"
target triple = "x86_64-pc-linux-gnu"

%"struct.std::_Rb_tree_header" = type { %"struct.std::_Rb_tree_node_base", i64 }
%"struct.std::_Rb_tree_node_base" = type { i32, ptr, ptr, ptr }
%"class.std::__cxx11::basic_string" = type { %"struct.std::__cxx11::basic_string<char>::_Alloc_hider", i64, %union.anon }
%"struct.std::__cxx11::basic_string<char>::_Alloc_hider" = type { ptr }
%union.anon = type { i64, [8 x i8] }
%"struct.Yosys::AST::AstNode" = type <{ i32, i32, %"class.std::vector", %"class.std::map", %"class.std::__cxx11::basic_string", %"class.std::vector.6", i8, i8, i8, i8, i8, i8, i8, i8, i8, i8, i8, i8, i8, [3 x i8], i32, i32, i32, i32, double, i8, [7 x i8], %"class.std::vector.11", i32, [4 x i8], ptr, i8, i8, [6 x i8], %"class.std::__cxx11::basic_string", %"struct.Yosys::AST::AstSrcLocType", i8, i8, i8, i8, [4 x i8] }>
%"class.std::vector" = type { %"struct.std::_Vector_base" }
%"struct.std::_Vector_base" = type { %"struct.std::_Vector_base<Yosys::AST::AstNode *, std::allocator<Yosys::AST::AstNode *>>::_Vector_impl" }
%"struct.std::_Vector_base<Yosys::AST::AstNode *, std::allocator<Yosys::AST::AstNode *>>::_Vector_impl" = type { %"struct.std::_Vector_base<Yosys::AST::AstNode *, std::allocator<Yosys::AST::AstNode *>>::_Vector_impl_data" }
%"struct.std::_Vector_base<Yosys::AST::AstNode *, std::allocator<Yosys::AST::AstNode *>>::_Vector_impl_data" = type { ptr, ptr, ptr }
%"class.std::map" = type { %"class.std::_Rb_tree" }
%"class.std::_Rb_tree" = type { %"struct.std::_Rb_tree<Yosys::RTLIL::IdString, std::pair<const Yosys::RTLIL::IdString, Yosys::AST::AstNode *>, std::_Select1st<std::pair<const Yosys::RTLIL::IdString, Yosys::AST::AstNode *>>, std::less<Yosys::RTLIL::IdString>>::_Rb_tree_impl" }
%"struct.std::_Rb_tree<Yosys::RTLIL::IdString, std::pair<const Yosys::RTLIL::IdString, Yosys::AST::AstNode *>, std::_Select1st<std::pair<const Yosys::RTLIL::IdString, Yosys::AST::AstNode *>>, std::less<Yosys::RTLIL::IdString>>::_Rb_tree_impl" = type { [8 x i8], %"struct.std::_Rb_tree_header" }
%"class.std::vector.6" = type { %"struct.std::_Vector_base.7" }
%"struct.std::_Vector_base.7" = type { %"struct.std::_Vector_base<Yosys::RTLIL::State, std::allocator<Yosys::RTLIL::State>>::_Vector_impl" }
%"struct.std::_Vector_base<Yosys::RTLIL::State, std::allocator<Yosys::RTLIL::State>>::_Vector_impl" = type { %"struct.std::_Vector_base<Yosys::RTLIL::State, std::allocator<Yosys::RTLIL::State>>::_Vector_impl_data" }
%"struct.std::_Vector_base<Yosys::RTLIL::State, std::allocator<Yosys::RTLIL::State>>::_Vector_impl_data" = type { ptr, ptr, ptr }
%"class.std::vector.11" = type { %"struct.std::_Vector_base.12" }
%"struct.std::_Vector_base.12" = type { %"struct.std::_Vector_base<Yosys::AST::AstNode::dimension_t, std::allocator<Yosys::AST::AstNode::dimension_t>>::_Vector_impl" }
%"struct.std::_Vector_base<Yosys::AST::AstNode::dimension_t, std::allocator<Yosys::AST::AstNode::dimension_t>>::_Vector_impl" = type { %"struct.std::_Vector_base<Yosys::AST::AstNode::dimension_t, std::allocator<Yosys::AST::AstNode::dimension_t>>::_Vector_impl_data" }
%"struct.std::_Vector_base<Yosys::AST::AstNode::dimension_t, std::allocator<Yosys::AST::AstNode::dimension_t>>::_Vector_impl_data" = type { ptr, ptr, ptr }
%"struct.Yosys::AST::AstSrcLocType" = type { i32, i32, i32, i32 }

; Function Attrs: mustprogress nounwind uwtable
define linkonce_odr noundef nonnull align 8 dereferenceable(8) ptr @_ZNSt6vectorIPN5Yosys3AST7AstNodeESaIS3_EEixEm(ptr noundef nonnull align 8 dereferenceable(24) %0, i64 noundef %1) #6 comdat align 2 {
  %3 = alloca ptr, align 8
  %4 = alloca i64, align 8
  store ptr %0, ptr %3, align 8, !tbaa !52
  store i64 %1, ptr %4, align 8, !tbaa !67
  %5 = load ptr, ptr %3, align 8
  %6 = getelementptr inbounds nuw %"struct.std::_Vector_base", ptr %5, i32 0, i32 0
  %7 = getelementptr inbounds nuw %"struct.std::_Vector_base<Yosys::AST::AstNode *, std::allocator<Yosys::AST::AstNode *>>::_Vector_impl_data", ptr %6, i32 0, i32 0
  %8 = load ptr, ptr %7, align 8, !tbaa !66
  %9 = load i64, ptr %4, align 8, !tbaa !67
  %10 = getelementptr inbounds nuw ptr, ptr %8, i64 %9
  ret ptr %10
}

; Function Attrs: mustprogress nounwind uwtable
define linkonce_odr noundef i64 @_ZNKSt6vectorIPN5Yosys3AST7AstNodeESaIS3_EE4sizeEv(ptr noundef nonnull align 8 dereferenceable(24) %0) #6 comdat align 2 {
  %2 = alloca ptr, align 8
  store ptr %0, ptr %2, align 8, !tbaa !52
  %3 = load ptr, ptr %2, align 8
  %4 = getelementptr inbounds nuw %"struct.std::_Vector_base", ptr %3, i32 0, i32 0
  %5 = getelementptr inbounds nuw %"struct.std::_Vector_base<Yosys::AST::AstNode *, std::allocator<Yosys::AST::AstNode *>>::_Vector_impl_data", ptr %4, i32 0, i32 1
  %6 = load ptr, ptr %5, align 8, !tbaa !65
  %7 = getelementptr inbounds nuw %"struct.std::_Vector_base", ptr %3, i32 0, i32 0
  %8 = getelementptr inbounds nuw %"struct.std::_Vector_base<Yosys::AST::AstNode *, std::allocator<Yosys::AST::AstNode *>>::_Vector_impl_data", ptr %7, i32 0, i32 0
  %9 = load ptr, ptr %8, align 8, !tbaa !66
  %10 = ptrtoint ptr %6 to i64
  %11 = ptrtoint ptr %9 to i64
  %12 = sub i64 %10, %11
  %13 = sdiv exact i64 %12, 8
  ret i64 %13
}

; Function Attrs: mustprogress uwtable
define internal noundef zeroext i1 @_ZN5YosysL25try_determine_range_widthEPNS_3AST7AstNodeERi(ptr noundef %0, ptr noundef nonnull align 4 dereferenceable(4) %1) #4 {
  %3 = alloca i1, align 1
  %4 = alloca ptr, align 8
  %5 = alloca ptr, align 8
  %6 = alloca ptr, align 8
  %7 = alloca ptr, align 8
  %8 = alloca i8, align 1
  store ptr %0, ptr %4, align 8, !tbaa !6
  store ptr %1, ptr %5, align 8, !tbaa !327
  br label %9

9:                                                ; preds = %2
  br label %10

10:                                               ; preds = %9
  %11 = load ptr, ptr %4, align 8, !tbaa !6
  %12 = getelementptr inbounds nuw %"struct.Yosys::AST::AstNode", ptr %11, i32 0, i32 2
  %13 = call noundef i64 @_ZNKSt6vectorIPN5Yosys3AST7AstNodeESaIS3_EE4sizeEv(ptr noundef nonnull align 8 dereferenceable(24) %12) #3
  %14 = icmp eq i64 %13, 1
  br i1 %14, label %15, label %17

15:                                               ; preds = %10
  %16 = load ptr, ptr %5, align 8, !tbaa !327
  store i32 1, ptr %16, align 4, !tbaa !74
  store i1 true, ptr %3, align 1
  br label %69

17:                                               ; preds = %10
  call void @llvm.lifetime.start.p0(i64 8, ptr %6) #3
  %18 = load ptr, ptr %4, align 8, !tbaa !6
  %19 = getelementptr inbounds nuw %"struct.Yosys::AST::AstNode", ptr %18, i32 0, i32 2
  %20 = call noundef nonnull align 8 dereferenceable(8) ptr @_ZNSt6vectorIPN5Yosys3AST7AstNodeESaIS3_EEixEm(ptr noundef nonnull align 8 dereferenceable(24) %19, i64 noundef 0) #3
  %21 = load ptr, ptr %20, align 8, !tbaa !6
  %22 = call noundef ptr @_ZN5Yosys3AST7AstNode13clone_at_zeroEv(ptr noundef nonnull align 8 dereferenceable(284) %21)
  store ptr %22, ptr %6, align 8, !tbaa !6
  call void @llvm.lifetime.start.p0(i64 8, ptr %7) #3
  %23 = load ptr, ptr %4, align 8, !tbaa !6
  %24 = getelementptr inbounds nuw %"struct.Yosys::AST::AstNode", ptr %23, i32 0, i32 2
  %25 = call noundef nonnull align 8 dereferenceable(8) ptr @_ZNSt6vectorIPN5Yosys3AST7AstNodeESaIS3_EEixEm(ptr noundef nonnull align 8 dereferenceable(24) %24, i64 noundef 1) #3
  %26 = load ptr, ptr %25, align 8, !tbaa !6
  %27 = call noundef ptr @_ZN5Yosys3AST7AstNode13clone_at_zeroEv(ptr noundef nonnull align 8 dereferenceable(284) %26)
  store ptr %27, ptr %7, align 8, !tbaa !6
  br label %28

28:                                               ; preds = %31, %17
  %29 = load ptr, ptr %6, align 8, !tbaa !6
  %30 = call noundef zeroext i1 @_ZN5Yosys3AST7AstNode8simplifyEbiib(ptr noundef nonnull align 8 dereferenceable(284) %29, i1 noundef zeroext true, i32 noundef 1, i32 noundef -1, i1 noundef zeroext false)
  br i1 %30, label %31, label %32

31:                                               ; preds = %28
  br label %28, !llvm.loop !463

32:                                               ; preds = %28
  br label %33

33:                                               ; preds = %36, %32
  %34 = load ptr, ptr %7, align 8, !tbaa !6
  %35 = call noundef zeroext i1 @_ZN5Yosys3AST7AstNode8simplifyEbiib(ptr noundef nonnull align 8 dereferenceable(284) %34, i1 noundef zeroext true, i32 noundef 1, i32 noundef -1, i1 noundef zeroext false)
  br i1 %35, label %36, label %37

36:                                               ; preds = %33
  br label %33, !llvm.loop !464

37:                                               ; preds = %33
  call void @llvm.lifetime.start.p0(i64 1, ptr %8) #3
  store i8 0, ptr %8, align 1, !tbaa !11
  %38 = load ptr, ptr %6, align 8, !tbaa !6
  %39 = getelementptr inbounds nuw %"struct.Yosys::AST::AstNode", ptr %38, i32 0, i32 1
  %40 = load i32, ptr %39, align 4, !tbaa !51
  %41 = icmp eq i32 %40, 16
  br i1 %41, label %42, label %58

42:                                               ; preds = %37
  %43 = load ptr, ptr %7, align 8, !tbaa !6
  %44 = getelementptr inbounds nuw %"struct.Yosys::AST::AstNode", ptr %43, i32 0, i32 1
  %45 = load i32, ptr %44, align 4, !tbaa !51
  %46 = icmp eq i32 %45, 16
  br i1 %46, label %47, label %58

47:                                               ; preds = %42
  store i8 1, ptr %8, align 1, !tbaa !11
  %48 = load ptr, ptr %6, align 8, !tbaa !6
  %49 = getelementptr inbounds nuw %"struct.Yosys::AST::AstNode", ptr %48, i32 0, i32 23
  %50 = load i32, ptr %49, align 4, !tbaa !210
  %51 = load ptr, ptr %7, align 8, !tbaa !6
  %52 = getelementptr inbounds nuw %"struct.Yosys::AST::AstNode", ptr %51, i32 0, i32 23
  %53 = load i32, ptr %52, align 4, !tbaa !210
  %54 = sub i32 %50, %53
  %55 = call i32 @llvm.abs.i32(i32 %54, i1 true)
  %56 = add nsw i32 %55, 1
  %57 = load ptr, ptr %5, align 8, !tbaa !327
  store i32 %56, ptr %57, align 4, !tbaa !74
  br label %58

58:                                               ; preds = %47, %42, %37
  %59 = load ptr, ptr %6, align 8, !tbaa !6
  %60 = icmp eq ptr %59, null
  br i1 %60, label %62, label %61

61:                                               ; preds = %58
  call void @_ZN5Yosys3AST7AstNodeD1Ev(ptr noundef nonnull align 8 dereferenceable(284) %59) #3
  call void @_ZdlPvm(ptr noundef %59, i64 noundef 288) #25
  br label %62

62:                                               ; preds = %61, %58
  %63 = load ptr, ptr %7, align 8, !tbaa !6
  %64 = icmp eq ptr %63, null
  br i1 %64, label %66, label %65

65:                                               ; preds = %62
  call void @_ZN5Yosys3AST7AstNodeD1Ev(ptr noundef nonnull align 8 dereferenceable(284) %63) #3
  call void @_ZdlPvm(ptr noundef %63, i64 noundef 288) #25
  br label %66

66:                                               ; preds = %65, %62
  %67 = load i8, ptr %8, align 1, !tbaa !11, !range !13, !noundef !14
  %68 = trunc i8 %67 to i1
  store i1 %68, ptr %3, align 1
  call void @llvm.lifetime.end.p0(i64 1, ptr %8) #3
  call void @llvm.lifetime.end.p0(i64 8, ptr %7) #3
  call void @llvm.lifetime.end.p0(i64 8, ptr %6) #3
  br label %69

69:                                               ; preds = %66, %15
  %70 = load i1, ptr %3, align 1
  ret i1 %70
}