; Function Attrs: mustprogress uwtable
define internal fastcc noundef zeroext i1 @_ZN5YosysL25try_determine_range_widthEPNS_3AST7AstNodeERi(ptr noundef readonly captures(none) %0, ptr noundef nonnull writeonly align 4 captures(none) dereferenceable(4) %1) unnamed_addr #3 {
  %3 = getelementptr inbounds nuw i8, ptr %0, i64 8
  %4 = getelementptr inbounds nuw i8, ptr %0, i64 16
  %5 = load ptr, ptr %4, align 8, !tbaa !52
  %6 = load ptr, ptr %3, align 8, !tbaa !53
  %7 = ptrtoint ptr %5 to i64
  %8 = ptrtoint ptr %6 to i64
  %9 = sub i64 %7, %8
  %10 = icmp eq i64 %9, 8
  br i1 %10, label %11, label %12

11:                                               ; preds = %2
  store i32 1, ptr %1, align 4, !tbaa !61
  br label %39

12:                                               ; preds = %2
  %13 = load ptr, ptr %6, align 8, !tbaa !51
  %14 = tail call noundef ptr @_ZN5Yosys3AST7AstNode13clone_at_zeroEv(ptr noundef nonnull align 8 dereferenceable(284) %13)
  %15 = load ptr, ptr %3, align 8, !tbaa !53
  %16 = getelementptr inbounds nuw i8, ptr %15, i64 8
  %17 = load ptr, ptr %16, align 8, !tbaa !51
  %18 = tail call noundef ptr @_ZN5Yosys3AST7AstNode13clone_at_zeroEv(ptr noundef nonnull align 8 dereferenceable(284) %17)
  br label %19

19:                                               ; preds = %19, %12
  %20 = tail call noundef zeroext i1 @_ZN5Yosys3AST7AstNode8simplifyEbiib(ptr noundef nonnull align 8 dereferenceable(284) %14, i1 noundef zeroext true, i32 noundef 1, i32 noundef -1, i1 noundef zeroext false)
  br i1 %20, label %19, label %.preheader, !llvm.loop !632

.preheader:                                       ; preds = %19, %.preheader
  %21 = tail call noundef zeroext i1 @_ZN5Yosys3AST7AstNode8simplifyEbiib(ptr noundef nonnull align 8 dereferenceable(284) %18, i1 noundef zeroext true, i32 noundef 1, i32 noundef -1, i1 noundef zeroext false)
  br i1 %21, label %.preheader, label %22, !llvm.loop !633

22:                                               ; preds = %.preheader
  %23 = getelementptr inbounds nuw i8, ptr %14, i64 4
  %24 = load i32, ptr %23, align 4, !tbaa !49
  %25 = icmp eq i32 %24, 16
  br i1 %25, label %26, label %38

26:                                               ; preds = %22
  %27 = getelementptr inbounds nuw i8, ptr %18, i64 4
  %28 = load i32, ptr %27, align 4, !tbaa !49
  %29 = icmp eq i32 %28, 16
  br i1 %29, label %30, label %38

30:                                               ; preds = %26
  %31 = getelementptr inbounds nuw i8, ptr %14, i64 164
  %32 = load i32, ptr %31, align 4, !tbaa !304
  %33 = getelementptr inbounds nuw i8, ptr %18, i64 164
  %34 = load i32, ptr %33, align 4, !tbaa !304
  %35 = sub i32 %32, %34
  %36 = tail call i32 @llvm.abs.i32(i32 %35, i1 true)
  %37 = add nuw nsw i32 %36, 1
  store i32 %37, ptr %1, align 4, !tbaa !61
  br label %38

38:                                               ; preds = %22, %26, %30
  %.0 = phi i1 [ true, %30 ], [ false, %26 ], [ false, %22 ]
  tail call void @_ZN5Yosys3AST7AstNodeD1Ev(ptr noundef nonnull align 8 dereferenceable(284) %14) #35
  tail call void @_ZdlPvm(ptr noundef nonnull %14, i64 noundef 288) #38
  tail call void @_ZN5Yosys3AST7AstNodeD1Ev(ptr noundef nonnull align 8 dereferenceable(284) %18) #35
  tail call void @_ZdlPvm(ptr noundef nonnull %18, i64 noundef 288) #38
  br label %39

39:                                               ; preds = %38, %11
  %.014 = phi i1 [ true, %11 ], [ %.0, %38 ]
  ret i1 %.014
}